target datalayout = "e-m:e-p270:32:32-p271:32:32-p272:64:64-i64:64-i128:128-f80:128-n8:16:32:64-S128"
target triple = "x86_64-unknown-linux-gnu"

%"class.IlmThread_3_2::ThreadPool" = type { ptr, ptr }

@_ZTVN13IlmThread_3_210ThreadPoolE = unnamed_addr constant { [4 x ptr] } { [4 x ptr] [ptr null, ptr @_ZTIN13IlmThread_3_210ThreadPoolE, ptr @_ZN13IlmThread_3_210ThreadPoolD1Ev, ptr @_ZN13IlmThread_3_210ThreadPoolD0Ev] }, align 8
@_ZN13IlmThread_3_210ThreadPool4DataC1Ev = hidden unnamed_addr alias void (ptr), ptr @_ZN13IlmThread_3_210ThreadPool4DataC2Ev

; Function Attrs: mustprogress uwtable
define void @_ZN13IlmThread_3_210ThreadPoolC2Ej(ptr noundef nonnull align 8 dereferenceable(16) %this, i32 noundef %nthreads) unnamed_addr #0 align 2 personality ptr @__gxx_personality_v0 {
entry:
  %this.addr = alloca ptr, align 8
  %nthreads.addr = alloca i32, align 4
  %exn.slot = alloca ptr, align 8
  %ehselector.slot = alloca i32, align 4
  store ptr %this, ptr %this.addr, align 8
  store i32 %nthreads, ptr %nthreads.addr, align 4
  %this1 = load ptr, ptr %this.addr, align 8
  store ptr getelementptr inbounds ({ [4 x ptr] }, ptr @_ZTVN13IlmThread_3_210ThreadPoolE, i32 0, i32 0, i32 2), ptr %this1, align 8
  %_data = getelementptr inbounds %"class.IlmThread_3_2::ThreadPool", ptr %this1, i32 0, i32 1
  %call = call noalias noundef nonnull ptr @_Znwm(i64 noundef 16) #13
  invoke void @_ZN13IlmThread_3_210ThreadPool4DataC1Ev(ptr noundef nonnull align 8 dereferenceable(16) %call)
          to label %invoke.cont unwind label %lpad

invoke.cont:                                      ; preds = %entry
  store ptr %call, ptr %_data, align 8
  %0 = load i32, ptr %nthreads.addr, align 4
  call void @_ZN13IlmThread_3_210ThreadPool13setNumThreadsEi(ptr noundef nonnull align 8 dereferenceable(16) %this1, i32 noundef %0)
  ret void

lpad:                                             ; preds = %entry
  %1 = landingpad { ptr, i32 }
          cleanup
  %2 = extractvalue { ptr, i32 } %1, 0
  store ptr %2, ptr %exn.slot, align 8
  %3 = extractvalue { ptr, i32 } %1, 1
  store i32 %3, ptr %ehselector.slot, align 4
  call void @_ZdlPv(ptr noundef %call) #14
  br label %eh.resume

eh.resume:                                        ; preds = %lpad
  %exn = load ptr, ptr %exn.slot, align 8
  %sel = load i32, ptr %ehselector.slot, align 4
  %lpad.val = insertvalue { ptr, i32 } poison, ptr %exn, 0
  %lpad.val2 = insertvalue { ptr, i32 } %lpad.val, i32 %sel, 1
  resume { ptr, i32 } %lpad.val2
}